Certificate:
    Data:
        Version: 3 (0x2)
        Serial Number: 1 (0x1)
        Signature Algorithm: sha1WithRSAEncryption
        Issuer: C=TH, ST=BKK, L=Bankkok, O=Chtunnel, CN=Chtunnel CA/emailAddress=mr.tum_net@hotmail.com
        Validity
            Not Before: Mar 14 15:22:16 2011 GMT
            Not After : Mar 11 15:22:16 2021 GMT
        Subject: C=TH, ST=BKK, L=Bankkok, O=Chtunnel, CN=server/emailAddress=mr.tum_net@hotmail.com
        Subject Public Key Info:
            Public Key Algorithm: rsaEncryption
            RSA Public Key: (1024 bit)
                Modulus (1024 bit):
                    00:e8:b2:02:f1:aa:8f:cd:9d:44:fb:29:11:42:1e:
                    eb:a8:4c:b2:02:37:d3:29:c6:cb:1a:2c:6e:f7:45:
                    54:6a:bf:7e:a3:0a:f8:53:a5:09:c5:52:8e:58:8a:
                    39:36:b4:d6:8d:8a:69:f3:08:29:db:3a:fa:a4:e9:
                    eb:83:0b:81:11:04:3e:1e:11:b6:ad:0e:40:44:70:
                    a8:d9:f5:2a:d1:b2:57:53:d4:a3:72:b9:62:50:0b:
                    bc:04:9a:20:ba:c9:39:de:a3:7c:5e:e2:cd:d3:49:
                    b6:8c:a3:e1:7d:9d:aa:16:4d:87:e8:06:b3:06:df:
                    1d:b2:9b:8c:4f:df:d5:e9:d9
                Exponent: 65537 (0x10001)
        X509v3 extensions:
            X509v3 Basic Constraints: 
                CA:FALSE
            Netscape Cert Type: 
                SSL Server
            Netscape Comment: 
                Easy-RSA Generated Server Certificate
            X509v3 Subject Key Identifier: 
                42:FF:14:7B:28:A8:31:39:93:38:49:24:67:9E:1A:FE:2E:66:A6:7E
            X509v3 Authority Key Identifier: 
                keyid:0F:29:6D:B4:C5:1A:27:BA:8A:4A:29:C1:20:E3:4B:F8:22:85:5E:2D
                DirName:/C=TH/ST=BKK/L=Bankkok/O=Chtunnel/CN=Chtunnel CA/emailAddress=mr.tum_net@hotmail.com
                serial:D1:22:98:C8:64:66:1D:F7

            X509v3 Extended Key Usage: 
                TLS Web Server Authentication
            X509v3 Key Usage: 
                Digital Signature, Key Encipherment
    Signature Algorithm: sha1WithRSAEncryption
        10:44:8a:ab:ae:2b:44:05:15:26:0d:ee:d6:a1:a7:f3:ac:ed:
        ab:4d:e8:1c:ae:0e:59:94:4a:f4:43:1e:eb:be:d4:92:fc:a0:
        b8:a2:0b:d5:18:59:33:6f:72:76:04:d9:8d:7d:6a:bd:5c:1e:
        2f:a6:21:d5:4a:34:7e:30:56:7f:30:ee:32:ed:7a:33:c4:be:
        09:c9:28:37:d1:e0:4b:f3:c0:50:d0:ee:7f:b6:05:ee:9c:3b:
        c1:1c:83:87:ad:16:cf:88:fe:04:32:0d:73:62:c1:44:fe:58:
        21:7d:19:54:5c:fc:b1:cf:61:20:78:e1:8c:0d:90:15:ef:3f:
        75:c3
-----BEGIN CERTIFICATE-----
MIIDuTCCAyKgAwIBAgIBATANBgkqhkiG9w0BAQUFADB9MQswCQYDVQQGEwJUSDEM
MAoGA1UECBMDQktLMRAwDgYDVQQHEwdCYW5ra29rMREwDwYDVQQKEwhDaHR1bm5l
bDEUMBIGA1UEAxMLQ2h0dW5uZWwgQ0ExJTAjBgkqhkiG9w0BCQEWFm1yLnR1bV9u
ZXRAaG90bWFpbC5jb20wHhcNMTEwMzE0MTUyMjE2WhcNMjEwMzExMTUyMjE2WjB4
MQswCQYDVQQGEwJUSDEMMAoGA1UECBMDQktLMRAwDgYDVQQHEwdCYW5ra29rMREw
DwYDVQQKEwhDaHR1bm5lbDEPMA0GA1UEAxMGc2VydmVyMSUwIwYJKoZIhvcNAQkB
FhZtci50dW1fbmV0QGhvdG1haWwuY29tMIGfMA0GCSqGSIb3DQEBAQUAA4GNADCB
iQKBgQDosgLxqo/NnUT7KRFCHuuoTLICN9MpxssaLG73RVRqv36jCvhTpQnFUo5Y
ijk2tNaNimnzCCnbOvqk6euDC4ERBD4eEbatDkBEcKjZ9SrRsldT1KNyuWJQC7wE
miC6yTneo3xe4s3TSbaMo+F9naoWTYfoBrMG3x2ym4xP39Xp2QIDAQABo4IBTDCC
AUgwCQYDVR0TBAIwADARBglghkgBhvhCAQEEBAMCBkAwNAYJYIZIAYb4QgENBCcW
JUVhc3ktUlNBIEdlbmVyYXRlZCBTZXJ2ZXIgQ2VydGlmaWNhdGUwHQYDVR0OBBYE
FEL/FHsoqDE5kzhJJGeeGv4uZqZ+MIGwBgNVHSMEgagwgaWAFA8pbbTFGie6ikop
wSDjS/gihV4toYGBpH8wfTELMAkGA1UEBhMCVEgxDDAKBgNVBAgTA0JLSzEQMA4G
A1UEBxMHQmFua2tvazERMA8GA1UEChMIQ2h0dW5uZWwxFDASBgNVBAMTC0NodHVu
bmVsIENBMSUwIwYJKoZIhvcNAQkBFhZtci50dW1fbmV0QGhvdG1haWwuY29tggkA
0SKYyGRmHfcwEwYDVR0lBAwwCgYIKwYBBQUHAwEwCwYDVR0PBAQDAgWgMA0GCSqG
SIb3DQEBBQUAA4GBABBEiquuK0QFFSYN7tahp/Os7atN6ByuDlmUSvRDHuu+1JL8
oLiiC9UYWTNvcnYE2Y19ar1cHi+mIdVKNH4wVn8w7jLtejPEvgnJKDfR4EvzwFDQ
7n+2Be6cO8Ecg4etFs+I/gQyDXNiwUT+WCF9GVRc/LHPYSB44YwNkBXvP3XD
-----END CERTIFICATE-----
